target datalayout = "e-m:e-p270:32:32-p271:32:32-p272:64:64-i64:64-i128:128-f80:128-n8:16:32:64-S128"
target triple = "x86_64-pc-linux-gnu"

%struct.SDL_Rect = type { i32, i32, i32, i32 }
%struct.SDL_Window = type { i32, ptr, ptr, i32, i32, i32, i32, i32, i32, i32, i32, float, float, i32, i32, i64, i64, float, i8, i8, i32, i32, %struct.SDL_Rect, %struct.SDL_Rect, %struct.SDL_Rect, i8, i8, i8, %struct.SDL_DisplayMode, %struct.SDL_DisplayMode, %struct.SDL_HDROutputProperties, float, ptr, i8, i8, i8, i8, i8, i8, i8, i8, i8, i32, i32, i32, i32, %struct.SDL_Rect, i32, i8, %struct.SDL_Rect, i32, %struct.SDL_Rect, ptr, ptr, i32, float, i32, i32, ptr, ptr, ptr, ptr, ptr, ptr, ptr, ptr, ptr }
%struct.SDL_DisplayMode = type { i32, i32, i32, i32, float, float, i32, i32, ptr }
%struct.SDL_HDROutputProperties = type { float, float }

; Function Attrs: nounwind uwtable
define internal void @X11_ConstrainPopup(ptr noundef %0, i1 noundef zeroext %1) #0 {
  %3 = alloca ptr, align 8
  %4 = alloca i8, align 1
  %5 = alloca ptr, align 8
  %6 = alloca i32, align 4
  %7 = alloca %struct.SDL_Rect, align 4
  %8 = alloca i32, align 4
  %9 = alloca i32, align 4
  %10 = alloca i32, align 4
  %11 = alloca i32, align 4
  store ptr %0, ptr %3, align 8
  %12 = zext i1 %1 to i8
  store i8 %12, ptr %4, align 1
  %13 = load ptr, ptr %3, align 8
  %14 = getelementptr inbounds nuw %struct.SDL_Window, ptr %13, i32 0, i32 15
  %15 = load i64, ptr %14, align 8
  %16 = and i64 %15, 786432
  %17 = icmp ne i64 %16, 0
  br i1 %17, label %18, label %211

18:                                               ; preds = %2
  call void @llvm.lifetime.start.p0(i64 8, ptr %5) #7
  call void @llvm.lifetime.start.p0(i64 4, ptr %6) #7
  call void @llvm.lifetime.start.p0(i64 16, ptr %7) #7
  call void @llvm.lifetime.start.p0(i64 4, ptr %8) #7
  %19 = load ptr, ptr %3, align 8
  %20 = getelementptr inbounds nuw %struct.SDL_Window, ptr %19, i32 0, i32 36
  %21 = load i8, ptr %20, align 1, !range !5, !noundef !6
  %22 = trunc i8 %21 to i1
  br i1 %22, label %23, label %28

23:                                               ; preds = %18
  %24 = load ptr, ptr %3, align 8
  %25 = getelementptr inbounds nuw %struct.SDL_Window, ptr %24, i32 0, i32 24
  %26 = getelementptr inbounds nuw %struct.SDL_Rect, ptr %25, i32 0, i32 0
  %27 = load i32, ptr %26, align 8
  br label %33

28:                                               ; preds = %18
  %29 = load ptr, ptr %3, align 8
  %30 = getelementptr inbounds nuw %struct.SDL_Window, ptr %29, i32 0, i32 23
  %31 = getelementptr inbounds nuw %struct.SDL_Rect, ptr %30, i32 0, i32 0
  %32 = load i32, ptr %31, align 8
  br label %33

33:                                               ; preds = %28, %23
  %34 = phi i32 [ %27, %23 ], [ %32, %28 ]
  store i32 %34, ptr %8, align 4
  call void @llvm.lifetime.start.p0(i64 4, ptr %9) #7
  %35 = load ptr, ptr %3, align 8
  %36 = getelementptr inbounds nuw %struct.SDL_Window, ptr %35, i32 0, i32 36
  %37 = load i8, ptr %36, align 1, !range !5, !noundef !6
  %38 = trunc i8 %37 to i1
  br i1 %38, label %39, label %44

39:                                               ; preds = %33
  %40 = load ptr, ptr %3, align 8
  %41 = getelementptr inbounds nuw %struct.SDL_Window, ptr %40, i32 0, i32 24
  %42 = getelementptr inbounds nuw %struct.SDL_Rect, ptr %41, i32 0, i32 1
  %43 = load i32, ptr %42, align 4
  br label %49

44:                                               ; preds = %33
  %45 = load ptr, ptr %3, align 8
  %46 = getelementptr inbounds nuw %struct.SDL_Window, ptr %45, i32 0, i32 23
  %47 = getelementptr inbounds nuw %struct.SDL_Rect, ptr %46, i32 0, i32 1
  %48 = load i32, ptr %47, align 4
  br label %49

49:                                               ; preds = %44, %39
  %50 = phi i32 [ %43, %39 ], [ %48, %44 ]
  store i32 %50, ptr %9, align 4
  call void @llvm.lifetime.start.p0(i64 4, ptr %10) #7
  store i32 0, ptr %10, align 4
  call void @llvm.lifetime.start.p0(i64 4, ptr %11) #7
  store i32 0, ptr %11, align 4
  %51 = load ptr, ptr %3, align 8
  %52 = getelementptr inbounds nuw %struct.SDL_Window, ptr %51, i32 0, i32 39
  %53 = load i8, ptr %52, align 2, !range !5, !noundef !6
  %54 = trunc i8 %53 to i1
  br i1 %54, label %55, label %175

55:                                               ; preds = %49
  %56 = load ptr, ptr %3, align 8
  %57 = getelementptr inbounds nuw %struct.SDL_Window, ptr %56, i32 0, i32 63
  %58 = load ptr, ptr %57, align 8
  store ptr %58, ptr %5, align 8
  br label %59

59:                                               ; preds = %76, %55
  %60 = load ptr, ptr %5, align 8
  %61 = getelementptr inbounds nuw %struct.SDL_Window, ptr %60, i32 0, i32 15
  %62 = load i64, ptr %61, align 8
  %63 = and i64 %62, 786432
  %64 = icmp ne i64 %63, 0
  br i1 %64, label %65, label %80

65:                                               ; preds = %59
  %66 = load ptr, ptr %5, align 8
  %67 = getelementptr inbounds nuw %struct.SDL_Window, ptr %66, i32 0, i32 3
  %68 = load i32, ptr %67, align 8
  %69 = load i32, ptr %10, align 4
  %70 = add nsw i32 %69, %68
  store i32 %70, ptr %10, align 4
  %71 = load ptr, ptr %5, align 8
  %72 = getelementptr inbounds nuw %struct.SDL_Window, ptr %71, i32 0, i32 4
  %73 = load i32, ptr %72, align 4
  %74 = load i32, ptr %11, align 4
  %75 = add nsw i32 %74, %73
  store i32 %75, ptr %11, align 4
  br label %76

76:                                               ; preds = %65
  %77 = load ptr, ptr %5, align 8
  %78 = getelementptr inbounds nuw %struct.SDL_Window, ptr %77, i32 0, i32 63
  %79 = load ptr, ptr %78, align 8
  store ptr %79, ptr %5, align 8
  br label %59, !llvm.loop !11

80:                                               ; preds = %59
  %81 = load ptr, ptr %5, align 8
  %82 = getelementptr inbounds nuw %struct.SDL_Window, ptr %81, i32 0, i32 3
  %83 = load i32, ptr %82, align 8
  %84 = load i32, ptr %10, align 4
  %85 = add nsw i32 %84, %83
  store i32 %85, ptr %10, align 4
  %86 = load ptr, ptr %5, align 8
  %87 = getelementptr inbounds nuw %struct.SDL_Window, ptr %86, i32 0, i32 4
  %88 = load i32, ptr %87, align 4
  %89 = load i32, ptr %11, align 4
  %90 = add nsw i32 %89, %88
  store i32 %90, ptr %11, align 4
  %91 = load i32, ptr %10, align 4
  %92 = load i32, ptr %8, align 4
  %93 = add nsw i32 %92, %91
  store i32 %93, ptr %8, align 4
  %94 = load i32, ptr %11, align 4
  %95 = load i32, ptr %9, align 4
  %96 = add nsw i32 %95, %94
  store i32 %96, ptr %9, align 4
  %97 = load ptr, ptr %5, align 8
  %98 = call i32 @SDL_GetDisplayForWindow_REAL(ptr noundef %97)
  store i32 %98, ptr %6, align 4
  %99 = load i32, ptr %6, align 4
  %100 = call zeroext i1 @SDL_GetDisplayBounds_REAL(i32 noundef %99, ptr noundef %7)
  %101 = load i32, ptr %8, align 4
  %102 = load ptr, ptr %3, align 8
  %103 = getelementptr inbounds nuw %struct.SDL_Window, ptr %102, i32 0, i32 5
  %104 = load i32, ptr %103, align 8
  %105 = add nsw i32 %101, %104
  %106 = getelementptr inbounds nuw %struct.SDL_Rect, ptr %7, i32 0, i32 0
  %107 = load i32, ptr %106, align 4
  %108 = getelementptr inbounds nuw %struct.SDL_Rect, ptr %7, i32 0, i32 2
  %109 = load i32, ptr %108, align 4
  %110 = add nsw i32 %107, %109
  %111 = icmp sgt i32 %105, %110
  br i1 %111, label %112, label %126

112:                                              ; preds = %80
  %113 = load i32, ptr %8, align 4
  %114 = load ptr, ptr %3, align 8
  %115 = getelementptr inbounds nuw %struct.SDL_Window, ptr %114, i32 0, i32 5
  %116 = load i32, ptr %115, align 8
  %117 = add nsw i32 %113, %116
  %118 = getelementptr inbounds nuw %struct.SDL_Rect, ptr %7, i32 0, i32 0
  %119 = load i32, ptr %118, align 4
  %120 = getelementptr inbounds nuw %struct.SDL_Rect, ptr %7, i32 0, i32 2
  %121 = load i32, ptr %120, align 4
  %122 = add nsw i32 %119, %121
  %123 = sub nsw i32 %117, %122
  %124 = load i32, ptr %8, align 4
  %125 = sub nsw i32 %124, %123
  store i32 %125, ptr %8, align 4
  br label %126

126:                                              ; preds = %112, %80
  %127 = load i32, ptr %9, align 4
  %128 = load ptr, ptr %3, align 8
  %129 = getelementptr inbounds nuw %struct.SDL_Window, ptr %128, i32 0, i32 6
  %130 = load i32, ptr %129, align 4
  %131 = add nsw i32 %127, %130
  %132 = getelementptr inbounds nuw %struct.SDL_Rect, ptr %7, i32 0, i32 1
  %133 = load i32, ptr %132, align 4
  %134 = getelementptr inbounds nuw %struct.SDL_Rect, ptr %7, i32 0, i32 3
  %135 = load i32, ptr %134, align 4
  %136 = add nsw i32 %133, %135
  %137 = icmp sgt i32 %131, %136
  br i1 %137, label %138, label %152

138:                                              ; preds = %126
  %139 = load i32, ptr %9, align 4
  %140 = load ptr, ptr %3, align 8
  %141 = getelementptr inbounds nuw %struct.SDL_Window, ptr %140, i32 0, i32 6
  %142 = load i32, ptr %141, align 4
  %143 = add nsw i32 %139, %142
  %144 = getelementptr inbounds nuw %struct.SDL_Rect, ptr %7, i32 0, i32 1
  %145 = load i32, ptr %144, align 4
  %146 = getelementptr inbounds nuw %struct.SDL_Rect, ptr %7, i32 0, i32 3
  %147 = load i32, ptr %146, align 4
  %148 = add nsw i32 %145, %147
  %149 = sub nsw i32 %143, %148
  %150 = load i32, ptr %9, align 4
  %151 = sub nsw i32 %150, %149
  store i32 %151, ptr %9, align 4
  br label %152

152:                                              ; preds = %138, %126
  %153 = load i32, ptr %8, align 4
  %154 = getelementptr inbounds nuw %struct.SDL_Rect, ptr %7, i32 0, i32 0
  %155 = load i32, ptr %154, align 4
  %156 = icmp sgt i32 %153, %155
  br i1 %156, label %157, label %159

157:                                              ; preds = %152
  %158 = load i32, ptr %8, align 4
  br label %162

159:                                              ; preds = %152
  %160 = getelementptr inbounds nuw %struct.SDL_Rect, ptr %7, i32 0, i32 0
  %161 = load i32, ptr %160, align 4
  br label %162

162:                                              ; preds = %159, %157
  %163 = phi i32 [ %158, %157 ], [ %161, %159 ]
  store i32 %163, ptr %8, align 4
  %164 = load i32, ptr %9, align 4
  %165 = getelementptr inbounds nuw %struct.SDL_Rect, ptr %7, i32 0, i32 1
  %166 = load i32, ptr %165, align 4
  %167 = icmp sgt i32 %164, %166
  br i1 %167, label %168, label %170

168:                                              ; preds = %162
  %169 = load i32, ptr %9, align 4
  br label %173

170:                                              ; preds = %162
  %171 = getelementptr inbounds nuw %struct.SDL_Rect, ptr %7, i32 0, i32 1
  %172 = load i32, ptr %171, align 4
  br label %173

173:                                              ; preds = %170, %168
  %174 = phi i32 [ %169, %168 ], [ %172, %170 ]
  store i32 %174, ptr %9, align 4
  br label %175

175:                                              ; preds = %173, %49
  %176 = load i8, ptr %4, align 1, !range !5, !noundef !6
  %177 = trunc i8 %176 to i1
  br i1 %177, label %178, label %191

178:                                              ; preds = %175
  %179 = load i32, ptr %8, align 4
  %180 = load i32, ptr %10, align 4
  %181 = sub nsw i32 %179, %180
  %182 = load ptr, ptr %3, align 8
  %183 = getelementptr inbounds nuw %struct.SDL_Window, ptr %182, i32 0, i32 24
  %184 = getelementptr inbounds nuw %struct.SDL_Rect, ptr %183, i32 0, i32 0
  store i32 %181, ptr %184, align 8
  %185 = load i32, ptr %9, align 4
  %186 = load i32, ptr %11, align 4
  %187 = sub nsw i32 %185, %186
  %188 = load ptr, ptr %3, align 8
  %189 = getelementptr inbounds nuw %struct.SDL_Window, ptr %188, i32 0, i32 24
  %190 = getelementptr inbounds nuw %struct.SDL_Rect, ptr %189, i32 0, i32 1
  store i32 %187, ptr %190, align 4
  br label %210

191:                                              ; preds = %175
  %192 = load i32, ptr %8, align 4
  %193 = load i32, ptr %10, align 4
  %194 = sub nsw i32 %192, %193
  %195 = load ptr, ptr %3, align 8
  %196 = getelementptr inbounds nuw %struct.SDL_Window, ptr %195, i32 0, i32 22
  %197 = getelementptr inbounds nuw %struct.SDL_Rect, ptr %196, i32 0, i32 0
  store i32 %194, ptr %197, align 8
  %198 = load ptr, ptr %3, align 8
  %199 = getelementptr inbounds nuw %struct.SDL_Window, ptr %198, i32 0, i32 23
  %200 = getelementptr inbounds nuw %struct.SDL_Rect, ptr %199, i32 0, i32 0
  store i32 %194, ptr %200, align 8
  %201 = load i32, ptr %9, align 4
  %202 = load i32, ptr %11, align 4
  %203 = sub nsw i32 %201, %202
  %204 = load ptr, ptr %3, align 8
  %205 = getelementptr inbounds nuw %struct.SDL_Window, ptr %204, i32 0, i32 22
  %206 = getelementptr inbounds nuw %struct.SDL_Rect, ptr %205, i32 0, i32 1
  store i32 %203, ptr %206, align 4
  %207 = load ptr, ptr %3, align 8
  %208 = getelementptr inbounds nuw %struct.SDL_Window, ptr %207, i32 0, i32 23
  %209 = getelementptr inbounds nuw %struct.SDL_Rect, ptr %208, i32 0, i32 1
  store i32 %203, ptr %209, align 4
  br label %210

210:                                              ; preds = %191, %178
  call void @llvm.lifetime.end.p0(i64 4, ptr %11) #7
  call void @llvm.lifetime.end.p0(i64 4, ptr %10) #7
  call void @llvm.lifetime.end.p0(i64 4, ptr %9) #7
  call void @llvm.lifetime.end.p0(i64 4, ptr %8) #7
  call void @llvm.lifetime.end.p0(i64 16, ptr %7) #7
  call void @llvm.lifetime.end.p0(i64 4, ptr %6) #7
  call void @llvm.lifetime.end.p0(i64 8, ptr %5) #7
  br label %211

211:                                              ; preds = %210, %2
  ret void
}