; Function Attrs: nounwind uwtable
define internal fastcc void @X11_ConstrainPopup(ptr noundef captures(none) %0, i1 noundef zeroext %1) unnamed_addr #0 {
  %3 = alloca %struct.SDL_Rect, align 4
  %4 = getelementptr inbounds nuw i8, ptr %0, i64 72
  %5 = load i64, ptr %4, align 8
  %6 = and i64 %5, 786432
  %.not = icmp eq i64 %6, 0
  br i1 %.not, label %72, label %7

7:                                                ; preds = %2
  call void @llvm.lifetime.start.p0(i64 16, ptr nonnull %3) #12
  %8 = getelementptr inbounds nuw i8, ptr %0, i64 267
  %9 = load i8, ptr %8, align 1, !range !5, !noundef !6
  %10 = trunc nuw i8 %9 to i1
  %11 = getelementptr inbounds nuw i8, ptr %0, i64 136
  %12 = getelementptr inbounds nuw i8, ptr %0, i64 120
  %.in = select i1 %10, ptr %11, ptr %12
  %13 = load i32, ptr %.in, align 8
  %14 = getelementptr inbounds nuw i8, ptr %0, i64 140
  %15 = getelementptr inbounds nuw i8, ptr %0, i64 124
  %.in64 = select i1 %10, ptr %14, ptr %15
  %16 = load i32, ptr %.in64, align 4
  %17 = getelementptr inbounds nuw i8, ptr %0, i64 270
  %18 = load i8, ptr %17, align 2, !range !5, !noundef !6
  %19 = trunc nuw i8 %18 to i1
  br i1 %19, label %.preheader, label %63

.preheader:                                       ; preds = %7
  %.059.in67 = getelementptr inbounds nuw i8, ptr %0, i64 424
  %.05968 = load ptr, ptr %.059.in67, align 8
  %20 = getelementptr inbounds nuw i8, ptr %.05968, i64 72
  %21 = load i64, ptr %20, align 8
  %22 = and i64 %21, 786432
  %.not6569 = icmp eq i64 %22, 0
  br i1 %.not6569, label %._crit_edge, label %.lr.ph

.lr.ph:                                           ; preds = %.preheader, %.lr.ph
  %.05972 = phi ptr [ %.059, %.lr.ph ], [ %.05968, %.preheader ]
  %.171 = phi i32 [ %28, %.lr.ph ], [ 0, %.preheader ]
  %.15470 = phi i32 [ %25, %.lr.ph ], [ 0, %.preheader ]
  %23 = getelementptr inbounds nuw i8, ptr %.05972, i64 24
  %24 = load i32, ptr %23, align 8
  %25 = add nsw i32 %24, %.15470
  %26 = getelementptr inbounds nuw i8, ptr %.05972, i64 28
  %27 = load i32, ptr %26, align 4
  %28 = add nsw i32 %27, %.171
  %.059.in = getelementptr inbounds nuw i8, ptr %.05972, i64 424
  %.059 = load ptr, ptr %.059.in, align 8
  %29 = getelementptr inbounds nuw i8, ptr %.059, i64 72
  %30 = load i64, ptr %29, align 8
  %31 = and i64 %30, 786432
  %.not65 = icmp eq i64 %31, 0
  br i1 %.not65, label %._crit_edge, label %.lr.ph, !llvm.loop !11

._crit_edge:                                      ; preds = %.lr.ph, %.preheader
  %.154.lcssa = phi i32 [ 0, %.preheader ], [ %25, %.lr.ph ]
  %.1.lcssa = phi i32 [ 0, %.preheader ], [ %28, %.lr.ph ]
  %.059.lcssa = phi ptr [ %.05968, %.preheader ], [ %.059, %.lr.ph ]
  %32 = getelementptr inbounds nuw i8, ptr %.059.lcssa, i64 24
  %33 = load i32, ptr %32, align 8
  %34 = add nsw i32 %33, %.154.lcssa
  %35 = getelementptr inbounds nuw i8, ptr %.059.lcssa, i64 28
  %36 = load i32, ptr %35, align 4
  %37 = add nsw i32 %36, %.1.lcssa
  %38 = add nsw i32 %34, %13
  %39 = add nsw i32 %37, %16
  %40 = tail call i32 @SDL_GetDisplayForWindow_REAL(ptr noundef nonnull %.059.lcssa) #12
  %41 = call zeroext i1 @SDL_GetDisplayBounds_REAL(i32 noundef %40, ptr noundef nonnull %3) #12
  %42 = getelementptr inbounds nuw i8, ptr %0, i64 32
  %43 = load i32, ptr %42, align 8
  %44 = add nsw i32 %43, %38
  %45 = load i32, ptr %3, align 4
  %46 = getelementptr inbounds nuw i8, ptr %3, i64 8
  %47 = load i32, ptr %46, align 4
  %48 = add nsw i32 %47, %45
  %49 = icmp sgt i32 %44, %48
  %.neg = sub i32 %48, %44
  %50 = select i1 %49, i32 %.neg, i32 0
  %.158 = add i32 %50, %38
  %51 = getelementptr inbounds nuw i8, ptr %0, i64 36
  %52 = load i32, ptr %51, align 4
  %53 = add nsw i32 %52, %39
  %54 = getelementptr inbounds nuw i8, ptr %3, i64 4
  %55 = load i32, ptr %54, align 4
  %56 = getelementptr inbounds nuw i8, ptr %3, i64 12
  %57 = load i32, ptr %56, align 4
  %58 = add nsw i32 %57, %55
  %59 = icmp sgt i32 %53, %58
  %.neg66 = sub i32 %58, %53
  %60 = select i1 %59, i32 %.neg66, i32 0
  %.156 = add i32 %60, %39
  %61 = call i32 @llvm.smax.i32(i32 %.158, i32 %45)
  %62 = call i32 @llvm.smax.i32(i32 %.156, i32 %55)
  br label %63

63:                                               ; preds = %._crit_edge, %7
  %.057 = phi i32 [ %61, %._crit_edge ], [ %13, %7 ]
  %.055 = phi i32 [ %62, %._crit_edge ], [ %16, %7 ]
  %.053 = phi i32 [ %34, %._crit_edge ], [ 0, %7 ]
  %.0 = phi i32 [ %37, %._crit_edge ], [ 0, %7 ]
  %64 = sub nsw i32 %.057, %.053
  br i1 %1, label %65, label %67

65:                                               ; preds = %63
  store i32 %64, ptr %11, align 8
  %66 = sub nsw i32 %.055, %.0
  store i32 %66, ptr %14, align 4
  br label %71

67:                                               ; preds = %63
  %68 = getelementptr inbounds nuw i8, ptr %0, i64 104
  store i32 %64, ptr %68, align 8
  store i32 %64, ptr %12, align 8
  %69 = sub nsw i32 %.055, %.0
  %70 = getelementptr inbounds nuw i8, ptr %0, i64 108
  store i32 %69, ptr %70, align 4
  store i32 %69, ptr %15, align 4
  br label %71

71:                                               ; preds = %67, %65
  call void @llvm.lifetime.end.p0(i64 16, ptr nonnull %3) #12
  br label %72

72:                                               ; preds = %71, %2
  ret void
}